target datalayout = "e-m:e-p270:32:32-p271:32:32-p272:64:64-i64:64-i128:128-f80:128-n8:16:32:64-S128"
target triple = "x86_64-pc-linux-gnu"

%struct.Hacl_Streaming_MD_state_32_s = type { ptr, ptr, i64 }

; Function Attrs: nounwind uwtable
define hidden ptr @python_hashlib_Hacl_Hash_SHA1_copy(ptr noundef %0) #0 {
  %2 = alloca ptr, align 8
  %3 = alloca %struct.Hacl_Streaming_MD_state_32_s, align 8
  %4 = alloca ptr, align 8
  %5 = alloca ptr, align 8
  %6 = alloca i64, align 8
  %7 = alloca ptr, align 8
  %8 = alloca ptr, align 8
  %9 = alloca %struct.Hacl_Streaming_MD_state_32_s, align 8
  %10 = alloca ptr, align 8
  store ptr %0, ptr %2, align 8, !tbaa !25
  call void @llvm.lifetime.start.p0(i64 24, ptr %3) #8
  %11 = load ptr, ptr %2, align 8, !tbaa !25
  call void @llvm.memcpy.p0.p0.i64(ptr align 8 %3, ptr align 8 %11, i64 24, i1 false), !tbaa.struct !27
  call void @llvm.lifetime.start.p0(i64 8, ptr %4) #8
  %12 = getelementptr inbounds nuw %struct.Hacl_Streaming_MD_state_32_s, ptr %3, i32 0, i32 0
  %13 = load ptr, ptr %12, align 8, !tbaa !21
  store ptr %13, ptr %4, align 8, !tbaa !3
  call void @llvm.lifetime.start.p0(i64 8, ptr %5) #8
  %14 = getelementptr inbounds nuw %struct.Hacl_Streaming_MD_state_32_s, ptr %3, i32 0, i32 1
  %15 = load ptr, ptr %14, align 8, !tbaa !23
  store ptr %15, ptr %5, align 8, !tbaa !10
  call void @llvm.lifetime.start.p0(i64 8, ptr %6) #8
  %16 = getelementptr inbounds nuw %struct.Hacl_Streaming_MD_state_32_s, ptr %3, i32 0, i32 2
  %17 = load i64, ptr %16, align 8, !tbaa !24
  store i64 %17, ptr %6, align 8, !tbaa !17
  call void @llvm.lifetime.start.p0(i64 8, ptr %7) #8
  %18 = call noalias ptr @calloc(i64 noundef 64, i64 noundef 1) #9
  store ptr %18, ptr %7, align 8, !tbaa !10
  %19 = load ptr, ptr %7, align 8, !tbaa !10
  %20 = load ptr, ptr %5, align 8, !tbaa !10
  call void @llvm.memcpy.p0.p0.i64(ptr align 1 %19, ptr align 1 %20, i64 64, i1 false)
  call void @llvm.lifetime.start.p0(i64 8, ptr %8) #8
  %21 = call noalias ptr @calloc(i64 noundef 5, i64 noundef 4) #9
  store ptr %21, ptr %8, align 8, !tbaa !3
  %22 = load ptr, ptr %8, align 8, !tbaa !3
  %23 = load ptr, ptr %4, align 8, !tbaa !3
  call void @llvm.memcpy.p0.p0.i64(ptr align 4 %22, ptr align 4 %23, i64 20, i1 false)
  call void @llvm.lifetime.start.p0(i64 24, ptr %9) #8
  %24 = getelementptr inbounds nuw %struct.Hacl_Streaming_MD_state_32_s, ptr %9, i32 0, i32 0
  %25 = load ptr, ptr %8, align 8, !tbaa !3
  store ptr %25, ptr %24, align 8, !tbaa !21
  %26 = getelementptr inbounds nuw %struct.Hacl_Streaming_MD_state_32_s, ptr %9, i32 0, i32 1
  %27 = load ptr, ptr %7, align 8, !tbaa !10
  store ptr %27, ptr %26, align 8, !tbaa !23
  %28 = getelementptr inbounds nuw %struct.Hacl_Streaming_MD_state_32_s, ptr %9, i32 0, i32 2
  %29 = load i64, ptr %6, align 8, !tbaa !17
  store i64 %29, ptr %28, align 8, !tbaa !24
  call void @llvm.lifetime.start.p0(i64 8, ptr %10) #8
  %30 = call noalias ptr @malloc(i64 noundef 24) #10
  store ptr %30, ptr %10, align 8, !tbaa !25
  %31 = load ptr, ptr %10, align 8, !tbaa !25
  %32 = getelementptr %struct.Hacl_Streaming_MD_state_32_s, ptr %31, i64 0
  call void @llvm.memcpy.p0.p0.i64(ptr align 8 %32, ptr align 8 %9, i64 24, i1 false), !tbaa.struct !27
  %33 = load ptr, ptr %10, align 8, !tbaa !25
  call void @llvm.lifetime.end.p0(i64 8, ptr %10) #8
  call void @llvm.lifetime.end.p0(i64 24, ptr %9) #8
  call void @llvm.lifetime.end.p0(i64 8, ptr %8) #8
  call void @llvm.lifetime.end.p0(i64 8, ptr %7) #8
  call void @llvm.lifetime.end.p0(i64 8, ptr %6) #8
  call void @llvm.lifetime.end.p0(i64 8, ptr %5) #8
  call void @llvm.lifetime.end.p0(i64 8, ptr %4) #8
  call void @llvm.lifetime.end.p0(i64 24, ptr %3) #8
  ret ptr %33
}