; Function Attrs: mustprogress nofree nounwind willreturn uwtable
define hidden noalias noundef ptr @python_hashlib_Hacl_Hash_SHA1_copy(ptr noundef readonly captures(none) %0) local_unnamed_addr #13 {
  %.sroa.08.0.copyload = load ptr, ptr %0, align 8, !tbaa !12
  %.sroa.49.0..sroa_idx = getelementptr inbounds nuw i8, ptr %0, i64 8
  %.sroa.49.0.copyload = load ptr, ptr %.sroa.49.0..sroa_idx, align 8, !tbaa !15
  %.sroa.510.0..sroa_idx = getelementptr inbounds nuw i8, ptr %0, i64 16
  %.sroa.510.0.copyload = load i64, ptr %.sroa.510.0..sroa_idx, align 8, !tbaa !17
  %2 = tail call noalias dereferenceable_or_null(64) ptr @calloc(i64 noundef 64, i64 noundef 1) #16
  tail call void @llvm.memcpy.p0.p0.i64(ptr noundef nonnull align 1 dereferenceable(64) %2, ptr noundef nonnull align 1 dereferenceable(64) %.sroa.49.0.copyload, i64 64, i1 false)
  %3 = tail call noalias dereferenceable_or_null(20) ptr @calloc(i64 noundef 5, i64 noundef 4) #16
  tail call void @llvm.memcpy.p0.p0.i64(ptr noundef nonnull align 4 dereferenceable(20) %3, ptr noundef nonnull align 4 dereferenceable(20) %.sroa.08.0.copyload, i64 20, i1 false)
  %4 = tail call noalias dereferenceable_or_null(24) ptr @malloc(i64 noundef 24) #17
  store ptr %3, ptr %4, align 8, !tbaa !12
  %.sroa.4.0..sroa_idx = getelementptr inbounds nuw i8, ptr %4, i64 8
  store ptr %2, ptr %.sroa.4.0..sroa_idx, align 8, !tbaa !15
  %.sroa.5.0..sroa_idx = getelementptr inbounds nuw i8, ptr %4, i64 16
  store i64 %.sroa.510.0.copyload, ptr %.sroa.5.0..sroa_idx, align 8, !tbaa !17
  ret ptr %4
}